target datalayout = "e-m:e-p270:32:32-p271:32:32-p272:64:64-i64:64-i128:128-f80:128-n8:16:32:64-S128"
target triple = "x86_64-pc-linux-gnu"

%"class.std::basic_istream" = type { ptr, i64, %"class.std::basic_ios" }
%"class.std::basic_ios" = type { %"class.std::ios_base", ptr, i8, i8, ptr, ptr, ptr, ptr }
%"class.std::ios_base" = type { ptr, i64, i64, i32, i32, i32, ptr, %"struct.std::ios_base::_Words", [8 x %"struct.std::ios_base::_Words"], i32, ptr, %"class.std::locale" }
%"struct.std::ios_base::_Words" = type { ptr, i64 }
%"class.std::locale" = type { ptr }
%class.scanner = type <{ i32, i32, %class.symbol, %class.rational, i32, i32, [256 x i8], %class.vector, ptr, ptr, %class.vector.0, %class.buffer, i32, i32, i8, i8, i8, i8, [4 x i8] }>
%class.symbol = type { ptr }
%class.rational = type { %class.mpq }
%class.mpq = type { %class.mpz, %class.mpz }
%class.mpz = type { i32, i8, ptr }
%class.vector = type { ptr }
%class.vector.0 = type { ptr }
%class.buffer = type { ptr, i32, i32, [16 x i8] }

; Function Attrs: mustprogress nounwind uwtable
define available_externally noundef i64 @_ZNKSi6gcountEv(ptr noundef nonnull align 8 dereferenceable(16) %0) #8 align 2 {
  %2 = alloca ptr, align 8
  store ptr %0, ptr %2, align 8, !tbaa !70
  %3 = load ptr, ptr %2, align 8
  %4 = getelementptr inbounds nuw %"class.std::basic_istream", ptr %3, i32 0, i32 1
  %5 = load i64, ptr %4, align 8, !tbaa !83
  ret i64 %5
}

; Function Attrs: mustprogress nounwind uwtable
define linkonce_odr hidden noundef i32 @_ZNK6bufferIcLb1ELj16EE4sizeEv(ptr noundef nonnull align 8 dereferenceable(32) %0) #8 comdat align 2 {
  %2 = alloca ptr, align 8
  store ptr %0, ptr %2, align 8, !tbaa !75
  %3 = load ptr, ptr %2, align 8
  %4 = getelementptr inbounds nuw %class.buffer, ptr %3, i32 0, i32 1
  %5 = load i32, ptr %4, align 8, !tbaa !78
  ret i32 %5
}

; Function Attrs: mustprogress nounwind uwtable
define linkonce_odr hidden noundef ptr @_ZNK6bufferIcLb1ELj16EE4dataEv(ptr noundef nonnull align 8 dereferenceable(32) %0) #8 comdat align 2 {
  %2 = alloca ptr, align 8
  store ptr %0, ptr %2, align 8, !tbaa !75
  %3 = load ptr, ptr %2, align 8
  %4 = getelementptr inbounds nuw %class.buffer, ptr %3, i32 0, i32 0
  %5 = load ptr, ptr %4, align 8, !tbaa !77
  ret ptr %5
}

; Function Attrs: mustprogress nounwind uwtable
define linkonce_odr hidden noundef nonnull align 1 dereferenceable(1) ptr @_ZN6bufferIcLb1ELj16EEixEj(ptr noundef nonnull align 8 dereferenceable(32) %0, i32 noundef %1) #8 comdat align 2 {
  %3 = alloca ptr, align 8
  %4 = alloca i32, align 4
  store ptr %0, ptr %3, align 8, !tbaa !75
  store i32 %1, ptr %4, align 4, !tbaa !9
  %5 = load ptr, ptr %3, align 8
  %6 = getelementptr inbounds nuw %class.buffer, ptr %5, i32 0, i32 0
  %7 = load ptr, ptr %6, align 8, !tbaa !77
  %8 = load i32, ptr %4, align 4, !tbaa !9
  %9 = zext i32 %8 to i64
  %10 = getelementptr inbounds nuw i8, ptr %7, i64 %9
  ret ptr %10
}

; Function Attrs: inlinehint mustprogress uwtable
define linkonce_odr hidden noundef i32 @_ZN7scanner9read_charEv(ptr noundef nonnull align 8 dereferenceable(388) %0) #7 comdat align 2 {
  %2 = alloca i32, align 4
  %3 = alloca ptr, align 8
  store ptr %0, ptr %3, align 8, !tbaa !3
  %4 = load ptr, ptr %3, align 8
  %5 = getelementptr inbounds nuw %class.scanner, ptr %4, i32 0, i32 15
  %6 = load i8, ptr %5, align 1, !tbaa !30, !range !31, !noundef !32
  %7 = trunc i8 %6 to i1
  br i1 %7, label %8, label %15

8:                                                ; preds = %1
  %9 = getelementptr inbounds nuw %class.scanner, ptr %4, i32 0, i32 1
  %10 = load i32, ptr %9, align 4, !tbaa !33
  %11 = add nsw i32 %10, 1
  store i32 %11, ptr %9, align 4, !tbaa !33
  %12 = getelementptr inbounds nuw %class.scanner, ptr %4, i32 0, i32 8
  %13 = load ptr, ptr %12, align 8, !tbaa !34
  %14 = call noundef i32 @_ZNSi3getEv(ptr noundef nonnull align 8 dereferenceable(16) %13)
  store i32 %14, ptr %2, align 4
  br label %71

15:                                               ; preds = %1
  %16 = getelementptr inbounds nuw %class.scanner, ptr %4, i32 0, i32 12
  %17 = load i32, ptr %16, align 8, !tbaa !35
  %18 = getelementptr inbounds nuw %class.scanner, ptr %4, i32 0, i32 13
  %19 = load i32, ptr %18, align 4, !tbaa !36
  %20 = icmp uge i32 %17, %19
  br i1 %20, label %21, label %50

21:                                               ; preds = %15
  %22 = getelementptr inbounds nuw %class.scanner, ptr %4, i32 0, i32 14
  %23 = load i8, ptr %22, align 8, !tbaa !37
  %24 = getelementptr inbounds nuw %class.scanner, ptr %4, i32 0, i32 11
  %25 = call noundef nonnull align 1 dereferenceable(1) ptr @_ZN6bufferIcLb1ELj16EEixEj(ptr noundef nonnull align 8 dereferenceable(32) %24, i32 noundef 0)
  store i8 %23, ptr %25, align 1, !tbaa !8
  %26 = getelementptr inbounds nuw %class.scanner, ptr %4, i32 0, i32 8
  %27 = load ptr, ptr %26, align 8, !tbaa !34
  %28 = getelementptr inbounds nuw %class.scanner, ptr %4, i32 0, i32 11
  %29 = call noundef ptr @_ZNK6bufferIcLb1ELj16EE4dataEv(ptr noundef nonnull align 8 dereferenceable(32) %28)
  %30 = getelementptr inbounds i8, ptr %29, i64 1
  %31 = getelementptr inbounds nuw %class.scanner, ptr %4, i32 0, i32 11
  %32 = call noundef i32 @_ZNK6bufferIcLb1ELj16EE4sizeEv(ptr noundef nonnull align 8 dereferenceable(32) %31)
  %33 = sub i32 %32, 1
  %34 = zext i32 %33 to i64
  %35 = call noundef nonnull align 8 dereferenceable(16) ptr @_ZNSi4readEPcl(ptr noundef nonnull align 8 dereferenceable(16) %27, ptr noundef %30, i64 noundef %34)
  %36 = getelementptr inbounds nuw %class.scanner, ptr %4, i32 0, i32 8
  %37 = load ptr, ptr %36, align 8, !tbaa !34
  %38 = call noundef i64 @_ZNKSi6gcountEv(ptr noundef nonnull align 8 dereferenceable(16) %37)
  %39 = trunc i64 %38 to i32
  %40 = add i32 1, %39
  %41 = getelementptr inbounds nuw %class.scanner, ptr %4, i32 0, i32 13
  store i32 %40, ptr %41, align 4, !tbaa !36
  %42 = getelementptr inbounds nuw %class.scanner, ptr %4, i32 0, i32 12
  store i32 1, ptr %42, align 8, !tbaa !35
  %43 = getelementptr inbounds nuw %class.scanner, ptr %4, i32 0, i32 11
  %44 = getelementptr inbounds nuw %class.scanner, ptr %4, i32 0, i32 13
  %45 = load i32, ptr %44, align 4, !tbaa !36
  %46 = sub i32 %45, 1
  %47 = call noundef nonnull align 1 dereferenceable(1) ptr @_ZN6bufferIcLb1ELj16EEixEj(ptr noundef nonnull align 8 dereferenceable(32) %43, i32 noundef %46)
  %48 = load i8, ptr %47, align 1, !tbaa !8
  %49 = getelementptr inbounds nuw %class.scanner, ptr %4, i32 0, i32 14
  store i8 %48, ptr %49, align 8, !tbaa !37
  br label %50

50:                                               ; preds = %21, %15
  %51 = getelementptr inbounds nuw %class.scanner, ptr %4, i32 0, i32 1
  %52 = load i32, ptr %51, align 4, !tbaa !33
  %53 = add nsw i32 %52, 1
  store i32 %53, ptr %51, align 4, !tbaa !33
  %54 = getelementptr inbounds nuw %class.scanner, ptr %4, i32 0, i32 12
  %55 = load i32, ptr %54, align 8, !tbaa !35
  %56 = getelementptr inbounds nuw %class.scanner, ptr %4, i32 0, i32 13
  %57 = load i32, ptr %56, align 4, !tbaa !36
  %58 = icmp ult i32 %55, %57
  br i1 %58, label %59, label %67

59:                                               ; preds = %50
  %60 = getelementptr inbounds nuw %class.scanner, ptr %4, i32 0, i32 11
  %61 = getelementptr inbounds nuw %class.scanner, ptr %4, i32 0, i32 12
  %62 = load i32, ptr %61, align 8, !tbaa !35
  %63 = add i32 %62, 1
  store i32 %63, ptr %61, align 8, !tbaa !35
  %64 = call noundef nonnull align 1 dereferenceable(1) ptr @_ZN6bufferIcLb1ELj16EEixEj(ptr noundef nonnull align 8 dereferenceable(32) %60, i32 noundef %62)
  %65 = load i8, ptr %64, align 1, !tbaa !8
  %66 = sext i8 %65 to i32
  store i32 %66, ptr %2, align 4
  br label %71

67:                                               ; preds = %50
  %68 = getelementptr inbounds nuw %class.scanner, ptr %4, i32 0, i32 12
  %69 = load i32, ptr %68, align 8, !tbaa !35
  %70 = add i32 %69, 1
  store i32 %70, ptr %68, align 8, !tbaa !35
  store i32 -1, ptr %2, align 4
  br label %71

71:                                               ; preds = %67, %59, %8
  %72 = load i32, ptr %2, align 4
  ret i32 %72
}

; Function Attrs: inlinehint mustprogress nounwind uwtable
define linkonce_odr hidden noundef zeroext i1 @_ZN7scanner8state_okEv(ptr noundef nonnull align 8 dereferenceable(388) %0) #5 comdat align 2 {
  %2 = alloca ptr, align 8
  store ptr %0, ptr %2, align 8, !tbaa !3
  %3 = load ptr, ptr %2, align 8
  %4 = getelementptr inbounds nuw %class.scanner, ptr %3, i32 0, i32 5
  %5 = load i32, ptr %4, align 4, !tbaa !29
  %6 = icmp ne i32 %5, 11
  br i1 %6, label %7, label %11

7:                                                ; preds = %1
  %8 = getelementptr inbounds nuw %class.scanner, ptr %3, i32 0, i32 5
  %9 = load i32, ptr %8, align 4, !tbaa !29
  %10 = icmp ne i32 %9, 10
  br label %11

11:                                               ; preds = %7, %1
  %12 = phi i1 [ false, %1 ], [ %10, %7 ]
  ret i1 %12
}

; Function Attrs: mustprogress uwtable
define hidden void @_ZN7scanner7commentEc(ptr noundef nonnull align 8 dereferenceable(388) %0, i8 noundef signext %1) #4 align 2 {
  %3 = alloca ptr, align 8
  %4 = alloca i8, align 1
  %5 = alloca i32, align 4
  %6 = alloca i32, align 4
  store ptr %0, ptr %3, align 8, !tbaa !3
  store i8 %1, ptr %4, align 1, !tbaa !8
  %7 = load ptr, ptr %3, align 8
  br label %8

8:                                                ; preds = %30, %2
  %9 = call noundef zeroext i1 @_ZN7scanner8state_okEv(ptr noundef nonnull align 8 dereferenceable(388) %7)
  br i1 %9, label %10, label %31

10:                                               ; preds = %8
  call void @llvm.lifetime.start.p0(i64 4, ptr %5) #3
  %11 = call noundef i32 @_ZN7scanner9read_charEv(ptr noundef nonnull align 8 dereferenceable(388) %7)
  store i32 %11, ptr %5, align 4, !tbaa !9
  %12 = load i32, ptr %5, align 4, !tbaa !9
  %13 = icmp eq i32 10, %12
  br i1 %13, label %14, label %18

14:                                               ; preds = %10
  %15 = getelementptr inbounds nuw %class.scanner, ptr %7, i32 0, i32 0
  %16 = load i32, ptr %15, align 8, !tbaa !11
  %17 = add nsw i32 %16, 1
  store i32 %17, ptr %15, align 8, !tbaa !11
  br label %18

18:                                               ; preds = %14, %10
  %19 = load i8, ptr %4, align 1, !tbaa !8
  %20 = sext i8 %19 to i32
  %21 = load i32, ptr %5, align 4, !tbaa !9
  %22 = icmp eq i32 %20, %21
  br i1 %22, label %26, label %23

23:                                               ; preds = %18
  %24 = load i32, ptr %5, align 4, !tbaa !9
  %25 = icmp eq i32 -1, %24
  br i1 %25, label %26, label %27

26:                                               ; preds = %23, %18
  store i32 1, ptr %6, align 4
  br label %28

27:                                               ; preds = %23
  store i32 0, ptr %6, align 4
  br label %28

28:                                               ; preds = %27, %26
  call void @llvm.lifetime.end.p0(i64 4, ptr %5) #3
  %29 = load i32, ptr %6, align 4
  switch i32 %29, label %32 [
    i32 0, label %30
    i32 1, label %31
  ]

30:                                               ; preds = %28
  br label %8, !llvm.loop !27

31:                                               ; preds = %28, %8
  ret void

32:                                               ; preds = %28
  unreachable
}