; Function Attrs: mustprogress uwtable
define hidden void @_ZN7scanner7commentEc(ptr noundef nonnull align 8 captures(none) dereferenceable(388) %0, i8 noundef signext %1) local_unnamed_addr #3 align 2 {
  %3 = getelementptr inbounds nuw i8, ptr %0, i64 52
  %4 = getelementptr inbounds nuw i8, ptr %0, i64 385
  %5 = getelementptr inbounds nuw i8, ptr %0, i64 376
  %6 = getelementptr inbounds nuw i8, ptr %0, i64 380
  %7 = getelementptr inbounds nuw i8, ptr %0, i64 384
  %8 = getelementptr inbounds nuw i8, ptr %0, i64 344
  %9 = getelementptr inbounds nuw i8, ptr %0, i64 320
  %10 = getelementptr inbounds nuw i8, ptr %0, i64 352
  %11 = getelementptr inbounds nuw i8, ptr %0, i64 4
  %12 = sext i8 %1 to i32
  br label %13

13:                                               ; preds = %63, %2
  %14 = load i32, ptr %3, align 4, !tbaa !3
  %15 = add i32 %14, -12
  %spec.select.i = icmp ult i32 %15, -2
  br i1 %spec.select.i, label %16, label %.loopexit

16:                                               ; preds = %13
  %17 = load i8, ptr %4, align 1, !tbaa !23, !range !24, !noundef !25
  %18 = trunc nuw i8 %17 to i1
  br i1 %18, label %19, label %24

19:                                               ; preds = %16
  %20 = load i32, ptr %11, align 4, !tbaa !26
  %21 = add nsw i32 %20, 1
  store i32 %21, ptr %11, align 4, !tbaa !26
  %22 = load ptr, ptr %9, align 8, !tbaa !27
  %23 = tail call noundef i32 @_ZNSi3getEv(ptr noundef nonnull align 8 dereferenceable(16) %22)
  br label %_ZN7scanner9read_charEv.exit

24:                                               ; preds = %16
  %25 = load i32, ptr %5, align 8, !tbaa !28
  %26 = load i32, ptr %6, align 4, !tbaa !29
  %.not.i = icmp ult i32 %25, %26
  br i1 %.not.i, label %46, label %27

27:                                               ; preds = %24
  %28 = load i8, ptr %7, align 8, !tbaa !30
  %29 = load ptr, ptr %8, align 8, !tbaa !31
  store i8 %28, ptr %29, align 1, !tbaa !32
  %30 = load ptr, ptr %9, align 8, !tbaa !27
  %31 = load ptr, ptr %8, align 8, !tbaa !31
  %32 = getelementptr inbounds nuw i8, ptr %31, i64 1
  %33 = load i32, ptr %10, align 8, !tbaa !33
  %34 = add i32 %33, -1
  %35 = zext i32 %34 to i64
  %36 = tail call noundef nonnull align 8 dereferenceable(16) ptr @_ZNSi4readEPcl(ptr noundef nonnull align 8 dereferenceable(16) %30, ptr noundef nonnull %32, i64 noundef %35)
  %37 = load ptr, ptr %9, align 8, !tbaa !27
  %38 = getelementptr inbounds nuw i8, ptr %37, i64 8
  %39 = load i64, ptr %38, align 8, !tbaa !34
  %40 = trunc i64 %39 to i32
  %41 = add i32 %40, 1
  store i32 %41, ptr %6, align 4, !tbaa !29
  store i32 1, ptr %5, align 8, !tbaa !28
  %42 = load ptr, ptr %8, align 8, !tbaa !31
  %43 = and i64 %39, 4294967295
  %44 = getelementptr inbounds nuw i8, ptr %42, i64 %43
  %45 = load i8, ptr %44, align 1, !tbaa !32
  store i8 %45, ptr %7, align 8, !tbaa !30
  br label %46

46:                                               ; preds = %27, %24
  %47 = phi i32 [ %41, %27 ], [ %26, %24 ]
  %48 = phi i32 [ 1, %27 ], [ %25, %24 ]
  %49 = load i32, ptr %11, align 4, !tbaa !26
  %50 = add nsw i32 %49, 1
  store i32 %50, ptr %11, align 4, !tbaa !26
  %51 = icmp ult i32 %48, %47
  %52 = add nuw i32 %48, 1
  store i32 %52, ptr %5, align 8, !tbaa !28
  br i1 %51, label %53, label %.loopexit

53:                                               ; preds = %46
  %54 = load ptr, ptr %8, align 8, !tbaa !31
  %55 = zext i32 %48 to i64
  %56 = getelementptr inbounds nuw i8, ptr %54, i64 %55
  %57 = load i8, ptr %56, align 1, !tbaa !32
  %58 = sext i8 %57 to i32
  br label %_ZN7scanner9read_charEv.exit

_ZN7scanner9read_charEv.exit:                     ; preds = %19, %53
  %.0.i = phi i32 [ %23, %19 ], [ %58, %53 ]
  %59 = icmp eq i32 %.0.i, 10
  br i1 %59, label %60, label %63

60:                                               ; preds = %_ZN7scanner9read_charEv.exit
  %61 = load i32, ptr %0, align 8, !tbaa !37
  %62 = add nsw i32 %61, 1
  store i32 %62, ptr %0, align 8, !tbaa !37
  br label %63

63:                                               ; preds = %60, %_ZN7scanner9read_charEv.exit
  %64 = icmp ne i32 %.0.i, %12
  %65 = icmp ne i32 %.0.i, -1
  %or.cond.not = and i1 %64, %65
  br i1 %or.cond.not, label %13, label %.loopexit

.loopexit:                                        ; preds = %63, %13, %46
  ret void
}